; ModuleID = 'source-C-CXX/18/692.c'
source_filename = "source-C-CXX/18/692.c"
target datalayout = "e-m:e-p270:32:32-p271:32:32-p272:64:64-i64:64-f80:128-n8:16:32:64-S128"
target triple = "x86_64-pc-linux-gnu"

@.str = private unnamed_addr constant [4 x i8] c"%s \00", align 1

; Function Attrs: nounwind sspstrong uwtable
define dso_local i32 @main() local_unnamed_addr #0 {
  %1 = alloca [1000 x i8], align 16
  %2 = alloca [100 x [100 x i8]], align 16
  %3 = alloca [100 x i8], align 16
  %4 = alloca [100 x i8], align 16
  %5 = getelementptr inbounds [1000 x i8], [1000 x i8]* %1, i64 0, i64 0
  call void @llvm.lifetime.start.p0i8(i64 1000, i8* nonnull %5) #6
  %6 = getelementptr inbounds [100 x [100 x i8]], [100 x [100 x i8]]* %2, i64 0, i64 0, i64 0
  call void @llvm.lifetime.start.p0i8(i64 10000, i8* nonnull %6) #6
  %7 = getelementptr inbounds [100 x i8], [100 x i8]* %3, i64 0, i64 0
  call void @llvm.lifetime.start.p0i8(i64 100, i8* nonnull %7) #6
  %8 = getelementptr inbounds [100 x i8], [100 x i8]* %4, i64 0, i64 0
  call void @llvm.lifetime.start.p0i8(i64 100, i8* nonnull %8) #6
  %9 = call i32 (i8*, ...) bitcast (i32 (...)* @gets to i32 (i8*, ...)*)(i8* nonnull %5) #6
  %10 = call i32 (i8*, ...) bitcast (i32 (...)* @gets to i32 (i8*, ...)*)(i8* nonnull %8) #6
  %11 = call i32 (i8*, ...) bitcast (i32 (...)* @gets to i32 (i8*, ...)*)(i8* nonnull %7) #6
  br label %12

12:                                               ; preds = %22, %0
  %13 = phi i64 [ %28, %22 ], [ 0, %0 ]
  %14 = phi i32 [ %29, %22 ], [ 0, %0 ]
  %15 = phi i64 [ %31, %22 ], [ 0, %0 ]
  br label %16

16:                                               ; preds = %12, %20
  %17 = phi i64 [ %21, %20 ], [ %13, %12 ]
  %18 = getelementptr inbounds [1000 x i8], [1000 x i8]* %1, i64 0, i64 %17
  %19 = load i8, i8* %18, align 1, !tbaa !5
  switch i8 %19, label %20 [
    i8 0, label %32
    i8 32, label %22
  ]

20:                                               ; preds = %16
  %21 = add nuw i64 %17, 1
  br label %16, !llvm.loop !8

22:                                               ; preds = %16
  %23 = getelementptr inbounds [1000 x i8], [1000 x i8]* %1, i64 0, i64 %17
  store i8 0, i8* %23, align 1, !tbaa !5
  %24 = zext i32 %14 to i64
  %25 = getelementptr inbounds [100 x [100 x i8]], [100 x [100 x i8]]* %2, i64 0, i64 %24, i64 0
  %26 = getelementptr inbounds [1000 x i8], [1000 x i8]* %1, i64 0, i64 %15
  %27 = call i8* @strcpy(i8* noundef nonnull %25, i8* noundef nonnull %26) #6
  %28 = add nuw i64 %17, 1
  %29 = add nuw nsw i32 %14, 1
  %30 = shl i64 %28, 32
  %31 = ashr exact i64 %30, 32
  br label %12, !llvm.loop !8

32:                                               ; preds = %16
  %33 = zext i32 %14 to i64
  %34 = getelementptr inbounds [100 x [100 x i8]], [100 x [100 x i8]]* %2, i64 0, i64 %33, i64 0
  %35 = getelementptr inbounds [1000 x i8], [1000 x i8]* %1, i64 0, i64 %15
  %36 = call i8* @strcpy(i8* noundef nonnull %34, i8* noundef nonnull %35) #6
  %37 = add nuw i32 %14, 1
  %38 = zext i32 %37 to i64
  br label %43

39:                                               ; preds = %50
  %40 = icmp eq i32 %14, 0
  br i1 %40, label %59, label %41

41:                                               ; preds = %39
  %42 = zext i32 %14 to i64
  br label %53

43:                                               ; preds = %32, %50
  %44 = phi i64 [ 0, %32 ], [ %51, %50 ]
  %45 = getelementptr inbounds [100 x [100 x i8]], [100 x [100 x i8]]* %2, i64 0, i64 %44, i64 0
  %46 = call i32 @strcmp(i8* noundef nonnull %45, i8* noundef nonnull %8) #7
  %47 = icmp eq i32 %46, 0
  br i1 %47, label %48, label %50

48:                                               ; preds = %43
  %49 = call i8* @strcpy(i8* noundef nonnull %45, i8* noundef nonnull %7) #6
  br label %50

50:                                               ; preds = %43, %48
  %51 = add nuw nsw i64 %44, 1
  %52 = icmp eq i64 %51, %38
  br i1 %52, label %39, label %43, !llvm.loop !10

53:                                               ; preds = %41, %53
  %54 = phi i64 [ 0, %41 ], [ %57, %53 ]
  %55 = getelementptr inbounds [100 x [100 x i8]], [100 x [100 x i8]]* %2, i64 0, i64 %54, i64 0
  %56 = call i32 (i8*, ...) @printf(i8* nonnull dereferenceable(1) getelementptr inbounds ([4 x i8], [4 x i8]* @.str, i64 0, i64 0), i8* nonnull %55)
  %57 = add nuw nsw i64 %54, 1
  %58 = icmp eq i64 %57, %42
  br i1 %58, label %59, label %53, !llvm.loop !11

59:                                               ; preds = %53, %39
  %60 = call i32 @puts(i8* nonnull %34)
  call void @llvm.lifetime.end.p0i8(i64 100, i8* nonnull %8) #6
  call void @llvm.lifetime.end.p0i8(i64 100, i8* nonnull %7) #6
  call void @llvm.lifetime.end.p0i8(i64 10000, i8* nonnull %6) #6
  call void @llvm.lifetime.end.p0i8(i64 1000, i8* nonnull %5) #6
  ret i32 0
}

; Function Attrs: argmemonly mustprogress nofree nosync nounwind willreturn
declare void @llvm.lifetime.start.p0i8(i64 immarg, i8* nocapture) #1

declare i32 @gets(...) local_unnamed_addr #2

; Function Attrs: argmemonly mustprogress nofree nounwind willreturn
declare i8* @strcpy(i8* noalias returned writeonly, i8* noalias nocapture readonly) local_unnamed_addr #3

; Function Attrs: argmemonly mustprogress nofree nounwind readonly willreturn
declare i32 @strcmp(i8* nocapture, i8* nocapture) local_unnamed_addr #4

; Function Attrs: nofree nounwind
declare noundef i32 @printf(i8* nocapture noundef readonly, ...) local_unnamed_addr #5

; Function Attrs: nofree nounwind
declare noundef i32 @puts(i8* nocapture noundef readonly) local_unnamed_addr #5

; Function Attrs: argmemonly mustprogress nofree nosync nounwind willreturn
declare void @llvm.lifetime.end.p0i8(i64 immarg, i8* nocapture) #1


!llvm.module.flags = !{!0, !1, !2, !3}
!llvm.ident = !{!4}

!0 = !{i32 1, !"wchar_size", i32 4}
!1 = !{i32 7, !"PIC Level", i32 2}
!2 = !{i32 7, !"PIE Level", i32 2}
!3 = !{i32 7, !"uwtable", i32 1}
!4 = !{!"clang version 13.0.0"}
!5 = !{!6, !6, i64 0}
!6 = !{!"omnipotent char", !7, i64 0}
!7 = !{!"Simple C/C++ TBAA"}
!8 = distinct !{!8, !9}
!9 = !{!"llvm.loop.mustprogress"}
!10 = distinct !{!10, !9}
!11 = distinct !{!11, !9}
